
Discarded input sections

 .note.GNU-stack
                0x0000000000000000        0x0 build/us_n64/levels/lll/leveldata.o

Memory Configuration

Name             Origin             Length             Attributes
*default*        0x0000000000000000 0xffffffffffffffff

Linker script and memory map

Address of section .text set to 0x7000000
LOAD build/us_n64/bin/fire.elf
LOAD build/us_n64/levels/lll/leveldata.o
                [!provide]                        PROVIDE (__executable_start = SEGMENT_START ("text-segment", 0x400000))
                0x0000000000400000                . = SEGMENT_START ("text-segment", 0x400000)

.interp
 *(.interp)

.MIPS.abiflags  0x0000000000400000       0x18
 *(.MIPS.abiflags)
 .MIPS.abiflags
                0x0000000000400000       0x18 build/us_n64/levels/lll/leveldata.o

.reginfo        0x0000000000400018       0x18
 *(.reginfo)
 .reginfo       0x0000000000400018       0x18 build/us_n64/levels/lll/leveldata.o

.note.gnu.build-id
 *(.note.gnu.build-id)

.dynamic
 *(.dynamic)

.hash
 *(.hash)

.gnu.hash
 *(.gnu.hash)

.dynsym
 *(.dynsym)

.dynstr
 *(.dynstr)

.gnu.version
 *(.gnu.version)

.gnu.version_d
 *(.gnu.version_d)

.gnu.version_r
 *(.gnu.version_r)

.rel.dyn        0x0000000000400030        0x0
 *(.rel.init)
 *(.rel.text .rel.text.* .rel.gnu.linkonce.t.*)
 *(.rel.fini)
 *(.rel.rodata .rel.rodata.* .rel.gnu.linkonce.r.*)
 *(.rel.data.rel.ro .rel.data.rel.ro.* .rel.gnu.linkonce.d.rel.ro.*)
 *(.rel.data .rel.data.* .rel.gnu.linkonce.d.*)
 *(.rel.tdata .rel.tdata.* .rel.gnu.linkonce.td.*)
 *(.rel.tbss .rel.tbss.* .rel.gnu.linkonce.tb.*)
 *(.rel.ctors)
 *(.rel.dtors)
 *(.rel.got)
 *(.rel.dyn)
 .rel.dyn       0x0000000000400030        0x0 build/us_n64/levels/lll/leveldata.o
 *(.rel.sdata .rel.sdata.* .rel.gnu.linkonce.s.*)
 *(.rel.sbss .rel.sbss.* .rel.gnu.linkonce.sb.*)
 *(.rel.sdata2 .rel.sdata2.* .rel.gnu.linkonce.s2.*)
 *(.rel.sbss2 .rel.sbss2.* .rel.gnu.linkonce.sb2.*)
 *(.rel.bss .rel.bss.* .rel.gnu.linkonce.b.*)
                [!provide]                        PROVIDE (__rel_iplt_start = .)
 *(.rel.iplt)
                [!provide]                        PROVIDE (__rel_iplt_end = .)

.rela.dyn       0x0000000000400030        0x0
 *(.rela.init)
 *(.rela.text .rela.text.* .rela.gnu.linkonce.t.*)
 *(.rela.fini)
 *(.rela.rodata .rela.rodata.* .rela.gnu.linkonce.r.*)
 *(.rela.data .rela.data.* .rela.gnu.linkonce.d.*)
 *(.rela.tdata .rela.tdata.* .rela.gnu.linkonce.td.*)
 *(.rela.tbss .rela.tbss.* .rela.gnu.linkonce.tb.*)
 *(.rela.ctors)
 *(.rela.dtors)
 *(.rela.got)
 *(.rela.sdata .rela.sdata.* .rela.gnu.linkonce.s.*)
 *(.rela.sbss .rela.sbss.* .rela.gnu.linkonce.sb.*)
 *(.rela.sdata2 .rela.sdata2.* .rela.gnu.linkonce.s2.*)
 *(.rela.sbss2 .rela.sbss2.* .rela.gnu.linkonce.sb2.*)
 *(.rela.bss .rela.bss.* .rela.gnu.linkonce.b.*)
                [!provide]                        PROVIDE (__rela_iplt_start = .)
 *(.rela.iplt)
                [!provide]                        PROVIDE (__rela_iplt_end = .)

.rel.plt
 *(.rel.plt)

.rela.plt
 *(.rela.plt)

.init
 *(SORT_NONE(.init))

.plt
 *(.plt)

.iplt
 *(.iplt)

.text           0x0000000007000000        0x0
                0x0000000007000000                _ftext = .
 *(.text.unlikely .text.*_unlikely .text.unlikely.*)
 *(.text.exit .text.exit.*)
 *(.text.startup .text.startup.*)
 *(.text.hot .text.hot.*)
 *(.text .stub .text.* .gnu.linkonce.t.*)
 .text          0x0000000007000000        0x0 build/us_n64/levels/lll/leveldata.o
 *(.gnu.warning)
 *(.mips16.fn.*)
 *(.mips16.call.*)

.fini
 *(SORT_NONE(.fini))
                [!provide]                        PROVIDE (__etext = .)
                [!provide]                        PROVIDE (_etext = .)
                [!provide]                        PROVIDE (etext = .)

.rodata
 *(.rodata .rodata.* .gnu.linkonce.r.*)

.rodata1
 *(.rodata1)

.sdata2
 *(.sdata2 .sdata2.* .gnu.linkonce.s2.*)

.sbss2
 *(.sbss2 .sbss2.* .gnu.linkonce.sb2.*)

.eh_frame_hdr
 *(.eh_frame_hdr)
 *(.eh_frame_entry .eh_frame_entry.*)

.eh_frame
 *(.eh_frame)
 *(.eh_frame.*)

.gcc_except_table
 *(.gcc_except_table .gcc_except_table.*)

.gnu_extab
 *(.gnu_extab*)

.exception_ranges
 *(.exception_ranges .exception_ranges*)
                0x0000000007000000                . = DATA_SEGMENT_ALIGN (CONSTANT (MAXPAGESIZE), CONSTANT (COMMONPAGESIZE))

.eh_frame
 *(.eh_frame)
 *(.eh_frame.*)

.gnu_extab
 *(.gnu_extab)

.gcc_except_table
 *(.gcc_except_table .gcc_except_table.*)

.exception_ranges
 *(.exception_ranges .exception_ranges*)

.tdata
 *(.tdata .tdata.* .gnu.linkonce.td.*)

.tbss
 *(.tbss .tbss.* .gnu.linkonce.tb.*)
 *(.tcommon)

.preinit_array  0x0000000007000000        0x0
                [!provide]                        PROVIDE (__preinit_array_start = .)
 *(.preinit_array)
                [!provide]                        PROVIDE (__preinit_array_end = .)

.init_array     0x0000000007000000        0x0
                [!provide]                        PROVIDE (__init_array_start = .)
 *(SORT_BY_INIT_PRIORITY(.init_array.*) SORT_BY_INIT_PRIORITY(.ctors.*))
 *(.init_array EXCLUDE_FILE(*crtend?.o *crtend.o *crtbegin?.o *crtbegin.o) .ctors)
                [!provide]                        PROVIDE (__init_array_end = .)

.fini_array     0x0000000007000000        0x0
                [!provide]                        PROVIDE (__fini_array_start = .)
 *(SORT_BY_INIT_PRIORITY(.fini_array.*) SORT_BY_INIT_PRIORITY(.dtors.*))
 *(.fini_array EXCLUDE_FILE(*crtend?.o *crtend.o *crtbegin?.o *crtbegin.o) .dtors)
                [!provide]                        PROVIDE (__fini_array_end = .)

.ctors
 *crtbegin.o(.ctors)
 *crtbegin?.o(.ctors)
 *(EXCLUDE_FILE(*crtend?.o *crtend.o) .ctors)
 *(SORT_BY_NAME(.ctors.*))
 *(.ctors)

.dtors
 *crtbegin.o(.dtors)
 *crtbegin?.o(.dtors)
 *(EXCLUDE_FILE(*crtend?.o *crtend.o) .dtors)
 *(SORT_BY_NAME(.dtors.*))
 *(.dtors)

.jcr
 *(.jcr)

.data.rel.ro
 *(.data.rel.ro.local* .gnu.linkonce.d.rel.ro.local.*)
 *(.data.rel.ro .data.rel.ro.* .gnu.linkonce.d.rel.ro.*)
                0x0000000007000000                . = DATA_SEGMENT_RELRO_END (., 0x0)

.data           0x0000000007000000    0x26db0
                0x0000000007000000                _fdata = .
 *(.data .data.* .gnu.linkonce.d.*)
 .data          0x0000000007000000    0x26db0 build/us_n64/levels/lll/leveldata.o
                0x0000000007000000                lll_dl_lavafall_volcano
                0x0000000007000050                lll_movtex_tris_lavafall_volcano
                0x00000000070000f8                lll_movtex_volcano_floor_lava
                0x0000000007000128                lll_dl_lava_floor
                0x0000000007000150                lll_movtex_tris_lava_floor
                0x00000000070001ac                lll_seg7_trajectory_07028660
                0x0000000007000298                lll_seg7_trajectory_0702856C
                0x000000000700038c                lll_seg7_collision_falling_wall
                0x0000000007000434                lll_seg7_area_2_macro_objs
                0x000000000700053c                lll_seg7_area_2_collision
                0x0000000007003140                lll_seg7_dl_07025EC0
                0x0000000007003400                lll_seg7_dl_07025BD8
                0x00000000070035b8                lll_seg7_dl_07025A48
                0x00000000070039a8                lll_seg7_dl_070255D8
                0x0000000007004260                lll_seg7_dl_07024C18
                0x0000000007005600                lll_seg7_dl_070235C8
                0x000000000700ab50                lll_seg7_collision_hexagonal_platform
                0x000000000700ac24                lll_seg7_collision_pitoune
                0x000000000700ad70                lll_seg7_collision_floating_block
                0x000000000700adfc                lll_seg7_collision_puzzle_piece
                0x000000000700ae30                lll_seg7_collision_inverted_pyramid
                0x000000000700ae8c                lll_seg7_collision_sinking_pyramids
                0x000000000700af6c                lll_seg7_collision_slow_tilting_platform
                0x000000000700afbc                lll_seg7_collision_rotating_platform
                0x000000000700b178                lll_seg7_collision_0701D21C
                0x000000000700b204                lll_seg7_collision_wood_piece
                0x000000000700b238                lll_seg7_collision_rotating_fire_bars
                0x000000000700b30c                lll_seg7_collision_drawbridge
                0x000000000700b340                lll_seg7_collision_octagonal_moving_platform
                0x000000000700b45c                lll_seg7_area_1_macro_objs
                0x000000000700b65c                lll_seg7_area_1_collision
                0x000000000700dc88                lll_seg7_dl_0701AD70
                0x000000000700e118                lll_seg7_dl_0701A878
                0x000000000700e368                lll_seg7_dl_bowser_puzzle_piece_shadow
                0x000000000700e3a8                lll_seg7_dl_bowser_puzzle_piece_14
                0x000000000700e3d8                lll_seg7_dl_bowser_puzzle_piece_13
                0x000000000700e408                lll_seg7_dl_bowser_puzzle_piece_12
                0x000000000700e438                lll_seg7_dl_bowser_puzzle_piece_11
                0x000000000700e468                lll_seg7_dl_bowser_puzzle_piece_10
                0x000000000700e498                lll_seg7_dl_bowser_puzzle_piece_9
                0x000000000700e4c8                lll_seg7_dl_bowser_puzzle_piece_8
                0x000000000700e4f8                lll_seg7_dl_bowser_puzzle_piece_7
                0x000000000700e528                lll_seg7_dl_bowser_puzzle_piece_6
                0x000000000700e558                lll_seg7_dl_bowser_puzzle_piece_5
                0x000000000700e588                lll_seg7_dl_bowser_puzzle_piece_4
                0x000000000700e5b8                lll_seg7_dl_bowser_puzzle_piece_3
                0x000000000700e5e8                lll_seg7_dl_bowser_puzzle_piece_2
                0x000000000700e618                lll_seg7_dl_bowser_puzzle_piece_1
                0x000000000700e768                lll_seg7_dl_0701A1F0
                0x000000000700e950                lll_seg7_dl_0701A010
                0x000000000700ed40                lll_seg7_dl_07019C08
                0x000000000700ef20                lll_seg7_dl_07019A08
                0x000000000700f4d8                lll_seg7_dl_070193E0
                0x000000000700f740                lll_seg7_dl_07019160
                0x000000000700f9a8                lll_seg7_dl_07018EF8
                0x000000000700fbf8                lll_seg7_dl_07018C90
                0x000000000700fe48                lll_seg7_dl_07018A30
                0x00000000070101b0                lll_seg7_dl_07018680
                0x00000000070104a8                lll_seg7_dl_07018380
                0x00000000070108a0                lll_seg7_dl_07017F40
                0x0000000007010c20                lll_seg7_dl_07017B50
                0x0000000007010eb8                lll_seg7_dl_070178A8
                0x0000000007011230                lll_seg7_dl_070174E0
                0x0000000007011b70                lll_seg7_dl_07016B00
                0x0000000007011fe0                lll_seg7_dl_070165C8
                0x0000000007012330                lll_seg7_dl_07016250
                0x0000000007012740                lll_seg7_dl_07015E20
                0x0000000007012870                lll_seg7_dl_07015C88
                0x0000000007013038                lll_seg7_dl_07015458
                0x0000000007013820                lll_seg7_dl_07014BD8
                0x0000000007013c30                lll_seg7_dl_07014788
                0x00000000070145b0                lll_seg7_dl_07013D28
                0x00000000070149c0                lll_seg7_dl_070138F8
                0x0000000007014ae8                lll_seg7_dl_070137C0
                0x0000000007014cc8                lll_seg7_dl_070134E0

.data1
 *(.data1)

.got.plt
 *(.got.plt)
                0x0000000007026db0                . = .
                0x0000000007026db0                . = .
                0x000000000702eda0                _gp = (ALIGN (0x10) + 0x7ff0)

.got
 *(.got)

.sdata
 *(.sdata .sdata.* .gnu.linkonce.s.*)

.lit8
 *(.lit8)

.lit4
 *(.lit4)
                0x0000000007026db0                _edata = .
                [!provide]                        PROVIDE (edata = .)
                0x0000000007026db0                . = .
                0x0000000007026db0                __bss_start = .
                0x0000000007026db0                _fbss = .

.sbss
 *(.dynsbss)
 *(.sbss .sbss.* .gnu.linkonce.sb.*)
 *(.scommon)

.bss            0x0000000007026db0        0x0
 *(.dynbss)
 *(.bss .bss.* .gnu.linkonce.b.*)
 .bss           0x0000000007026db0        0x0 build/us_n64/levels/lll/leveldata.o
 *(COMMON)
                0x0000000007026db0                . = ALIGN ((. != 0x0)?0x4:0x1)
                0x0000000007026db0                . = ALIGN (0x4)
                0x0000000007026db0                . = SEGMENT_START ("ldata-segment", .)
                0x0000000007026db0                . = ALIGN (0x4)
                0x0000000007026db0                _end = .
                [!provide]                        PROVIDE (end = .)
                0x0000000007026db0                . = DATA_SEGMENT_END (.)

.stab
 *(.stab)

.stabstr
 *(.stabstr)

.stab.excl
 *(.stab.excl)

.stab.exclstr
 *(.stab.exclstr)

.stab.index
 *(.stab.index)

.stab.indexstr
 *(.stab.indexstr)

.comment        0x0000000000000000       0x25
 *(.comment)
 .comment       0x0000000000000000       0x25 build/us_n64/levels/lll/leveldata.o
                                         0x26 (size before relaxing)

.pdr            0x0000000000000000        0x0
 .pdr           0x0000000000000000        0x0 build/us_n64/levels/lll/leveldata.o

.debug
 *(.debug)

.line
 *(.line)

.debug_srcinfo
 *(.debug_srcinfo)

.debug_sfnames
 *(.debug_sfnames)

.debug_aranges
 *(.debug_aranges)

.debug_pubnames
 *(.debug_pubnames)

.debug_info
 *(.debug_info .gnu.linkonce.wi.*)

.debug_abbrev
 *(.debug_abbrev)

.debug_line
 *(.debug_line .debug_line.* .debug_line_end)

.debug_frame
 *(.debug_frame)

.debug_str
 *(.debug_str)

.debug_loc
 *(.debug_loc)

.debug_macinfo
 *(.debug_macinfo)

.debug_weaknames
 *(.debug_weaknames)

.debug_funcnames
 *(.debug_funcnames)

.debug_typenames
 *(.debug_typenames)

.debug_varnames
 *(.debug_varnames)

.debug_pubtypes
 *(.debug_pubtypes)

.debug_ranges
 *(.debug_ranges)

.debug_macro
 *(.debug_macro)

.debug_addr
 *(.debug_addr)

.gnu.attributes
                0x0000000000000000       0x10
 *(.gnu.attributes)
 .gnu.attributes
                0x0000000000000000       0x10 build/us_n64/levels/lll/leveldata.o

.gptab.sdata
 *(.gptab.data)
 *(.gptab.sdata)

.gptab.sbss
 *(.gptab.bss)
 *(.gptab.sbss)

.mdebug.abi32   0x0000000000000000        0x0
 *(.mdebug.abi32)
 .mdebug.abi32  0x0000000000000000        0x0 build/us_n64/levels/lll/leveldata.o

.mdebug.abiN32
 *(.mdebug.abiN32)

.mdebug.abi64
 *(.mdebug.abi64)

.mdebug.abiO64
 *(.mdebug.abiO64)

.mdebug.eabi32
 *(.mdebug.eabi32)

.mdebug.eabi64
 *(.mdebug.eabi64)

.gcc_compiled_long32
 *(.gcc_compiled_long32)

.gcc_compiled_long64
 *(.gcc_compiled_long64)

/DISCARD/
 *(.note.GNU-stack)
 *(.gnu_debuglink)
 *(.gnu.lto_*)
OUTPUT(build/us_n64/levels/lll/leveldata.elf elf32-bigmips)
