
Discarded input sections

 .note.GNU-stack
                0x0000000000000000        0x0 build/us_n64/levels/bbh/leveldata.o

Memory Configuration

Name             Origin             Length             Attributes
*default*        0x0000000000000000 0xffffffffffffffff

Linker script and memory map

Address of section .text set to 0x7000000
LOAD build/us_n64/bin/spooky.elf
LOAD build/us_n64/levels/bbh/leveldata.o
                [!provide]                        PROVIDE (__executable_start = SEGMENT_START ("text-segment", 0x400000))
                0x0000000000400000                . = SEGMENT_START ("text-segment", 0x400000)

.interp
 *(.interp)

.MIPS.abiflags  0x0000000000400000       0x18
 *(.MIPS.abiflags)
 .MIPS.abiflags
                0x0000000000400000       0x18 build/us_n64/levels/bbh/leveldata.o

.reginfo        0x0000000000400018       0x18
 *(.reginfo)
 .reginfo       0x0000000000400018       0x18 build/us_n64/levels/bbh/leveldata.o

.note.gnu.build-id
 *(.note.gnu.build-id)

.dynamic
 *(.dynamic)

.hash
 *(.hash)

.gnu.hash
 *(.gnu.hash)

.dynsym
 *(.dynsym)

.dynstr
 *(.dynstr)

.gnu.version
 *(.gnu.version)

.gnu.version_d
 *(.gnu.version_d)

.gnu.version_r
 *(.gnu.version_r)

.rel.dyn        0x0000000000400030        0x0
 *(.rel.init)
 *(.rel.text .rel.text.* .rel.gnu.linkonce.t.*)
 *(.rel.fini)
 *(.rel.rodata .rel.rodata.* .rel.gnu.linkonce.r.*)
 *(.rel.data.rel.ro .rel.data.rel.ro.* .rel.gnu.linkonce.d.rel.ro.*)
 *(.rel.data .rel.data.* .rel.gnu.linkonce.d.*)
 *(.rel.tdata .rel.tdata.* .rel.gnu.linkonce.td.*)
 *(.rel.tbss .rel.tbss.* .rel.gnu.linkonce.tb.*)
 *(.rel.ctors)
 *(.rel.dtors)
 *(.rel.got)
 *(.rel.dyn)
 .rel.dyn       0x0000000000400030        0x0 build/us_n64/levels/bbh/leveldata.o
 *(.rel.sdata .rel.sdata.* .rel.gnu.linkonce.s.*)
 *(.rel.sbss .rel.sbss.* .rel.gnu.linkonce.sb.*)
 *(.rel.sdata2 .rel.sdata2.* .rel.gnu.linkonce.s2.*)
 *(.rel.sbss2 .rel.sbss2.* .rel.gnu.linkonce.sb2.*)
 *(.rel.bss .rel.bss.* .rel.gnu.linkonce.b.*)
                [!provide]                        PROVIDE (__rel_iplt_start = .)
 *(.rel.iplt)
                [!provide]                        PROVIDE (__rel_iplt_end = .)

.rela.dyn       0x0000000000400030        0x0
 *(.rela.init)
 *(.rela.text .rela.text.* .rela.gnu.linkonce.t.*)
 *(.rela.fini)
 *(.rela.rodata .rela.rodata.* .rela.gnu.linkonce.r.*)
 *(.rela.data .rela.data.* .rela.gnu.linkonce.d.*)
 *(.rela.tdata .rela.tdata.* .rela.gnu.linkonce.td.*)
 *(.rela.tbss .rela.tbss.* .rela.gnu.linkonce.tb.*)
 *(.rela.ctors)
 *(.rela.dtors)
 *(.rela.got)
 *(.rela.sdata .rela.sdata.* .rela.gnu.linkonce.s.*)
 *(.rela.sbss .rela.sbss.* .rela.gnu.linkonce.sb.*)
 *(.rela.sdata2 .rela.sdata2.* .rela.gnu.linkonce.s2.*)
 *(.rela.sbss2 .rela.sbss2.* .rela.gnu.linkonce.sb2.*)
 *(.rela.bss .rela.bss.* .rela.gnu.linkonce.b.*)
                [!provide]                        PROVIDE (__rela_iplt_start = .)
 *(.rela.iplt)
                [!provide]                        PROVIDE (__rela_iplt_end = .)

.rel.plt
 *(.rel.plt)

.rela.plt
 *(.rela.plt)

.init
 *(SORT_NONE(.init))

.plt
 *(.plt)

.iplt
 *(.iplt)

.text           0x0000000007000000        0x0
                0x0000000007000000                _ftext = .
 *(.text.unlikely .text.*_unlikely .text.unlikely.*)
 *(.text.exit .text.exit.*)
 *(.text.startup .text.startup.*)
 *(.text.hot .text.hot.*)
 *(.text .stub .text.* .gnu.linkonce.t.*)
 .text          0x0000000007000000        0x0 build/us_n64/levels/bbh/leveldata.o
 *(.gnu.warning)
 *(.mips16.fn.*)
 *(.mips16.call.*)

.fini
 *(SORT_NONE(.fini))
                [!provide]                        PROVIDE (__etext = .)
                [!provide]                        PROVIDE (_etext = .)
                [!provide]                        PROVIDE (etext = .)

.rodata
 *(.rodata .rodata.* .gnu.linkonce.r.*)

.rodata1
 *(.rodata1)

.sdata2
 *(.sdata2 .sdata2.* .gnu.linkonce.s2.*)

.sbss2
 *(.sbss2 .sbss2.* .gnu.linkonce.sb2.*)

.eh_frame_hdr
 *(.eh_frame_hdr)
 *(.eh_frame_entry .eh_frame_entry.*)

.eh_frame
 *(.eh_frame)
 *(.eh_frame.*)

.gcc_except_table
 *(.gcc_except_table .gcc_except_table.*)

.gnu_extab
 *(.gnu_extab*)

.exception_ranges
 *(.exception_ranges .exception_ranges*)
                0x0000000007000000                . = DATA_SEGMENT_ALIGN (CONSTANT (MAXPAGESIZE), CONSTANT (COMMONPAGESIZE))

.eh_frame
 *(.eh_frame)
 *(.eh_frame.*)

.gnu_extab
 *(.gnu_extab)

.gcc_except_table
 *(.gcc_except_table .gcc_except_table.*)

.exception_ranges
 *(.exception_ranges .exception_ranges*)

.tdata
 *(.tdata .tdata.* .gnu.linkonce.td.*)

.tbss
 *(.tbss .tbss.* .gnu.linkonce.tb.*)
 *(.tcommon)

.preinit_array  0x0000000007000000        0x0
                [!provide]                        PROVIDE (__preinit_array_start = .)
 *(.preinit_array)
                [!provide]                        PROVIDE (__preinit_array_end = .)

.init_array     0x0000000007000000        0x0
                [!provide]                        PROVIDE (__init_array_start = .)
 *(SORT_BY_INIT_PRIORITY(.init_array.*) SORT_BY_INIT_PRIORITY(.ctors.*))
 *(.init_array EXCLUDE_FILE(*crtend?.o *crtend.o *crtbegin?.o *crtbegin.o) .ctors)
                [!provide]                        PROVIDE (__init_array_end = .)

.fini_array     0x0000000007000000        0x0
                [!provide]                        PROVIDE (__fini_array_start = .)
 *(SORT_BY_INIT_PRIORITY(.fini_array.*) SORT_BY_INIT_PRIORITY(.dtors.*))
 *(.fini_array EXCLUDE_FILE(*crtend?.o *crtend.o *crtbegin?.o *crtbegin.o) .dtors)
                [!provide]                        PROVIDE (__fini_array_end = .)

.ctors
 *crtbegin.o(.ctors)
 *crtbegin?.o(.ctors)
 *(EXCLUDE_FILE(*crtend?.o *crtend.o) .ctors)
 *(SORT_BY_NAME(.ctors.*))
 *(.ctors)

.dtors
 *crtbegin.o(.dtors)
 *crtbegin?.o(.dtors)
 *(EXCLUDE_FILE(*crtend?.o *crtend.o) .dtors)
 *(SORT_BY_NAME(.dtors.*))
 *(.dtors)

.jcr
 *(.jcr)

.data.rel.ro
 *(.data.rel.ro.local* .gnu.linkonce.d.rel.ro.local.*)
 *(.data.rel.ro .data.rel.ro.* .gnu.linkonce.d.rel.ro.*)
                0x0000000007000000                . = DATA_SEGMENT_RELRO_END (., 0x0)

.data           0x0000000007000000    0x25b00
                0x0000000007000000                _fdata = .
 *(.data .data.* .gnu.linkonce.d.*)
 .data          0x0000000007000000    0x25b00 build/us_n64/levels/bbh/leveldata.o
                0x0000000007000000                bbh_movtex_merry_go_round_water_side
                0x0000000007000010                bbh_movtex_merry_go_round_water_entrance
                0x0000000007000060                bbh_seg7_collision_coffin
                0x0000000007000154                bbh_seg7_collision_merry_go_round
                0x0000000007000280                bbh_seg7_collision_mesh_elevator
                0x0000000007000320                bbh_seg7_collision_haunted_bookshelf
                0x0000000007000370                bbh_seg7_collision_07026B1C
                0x00000000070003a4                bbh_seg7_collision_tilt_floor_platform
                0x0000000007000440                bbh_seg7_collision_staircase_step
                0x00000000070004d0                bbh_seg7_macro_objs
                0x0000000007000628                bbh_seg7_rooms
                0x0000000007000e90                bbh_seg7_collision_level
                0x0000000007007818                bbh_seg7_dl_070206F0
                0x0000000007007bf8                bbh_seg7_dl_070202F0
                0x0000000007007ed0                bbh_seg7_dl_0701FFE8
                0x0000000007008148                bbh_seg7_dl_0701FD28
                0x00000000070083b0                bbh_seg7_dl_0701FAB0
                0x0000000007008648                bbh_seg7_dl_0701F7E8
                0x00000000070087d8                bbh_seg7_dl_0701F5F8
                0x0000000007008ad0                bbh_seg7_dl_0701F2E8
                0x0000000007008d38                bbh_seg7_dl_0701F070
                0x0000000007008ea8                bbh_seg7_dl_0701EEC8
                0x0000000007009060                bbh_seg7_dl_0701ED18
                0x0000000007009448                bbh_seg7_dl_0701E8D8
                0x0000000007009778                bbh_seg7_dl_0701E4E0
                0x000000000700c210                bbh_seg7_dl_0701B6D0
                0x000000000700cf58                bbh_seg7_dl_0701A850
                0x000000000700d6d0                bbh_seg7_dl_0701A080
                0x000000000700d7b0                bbh_seg7_dl_07019EF8
                0x000000000700fc58                bbh_seg7_dl_07017788
                0x000000000700fe30                bbh_seg7_dl_07017570
                0x000000000700ff78                bbh_seg7_dl_07017378
                0x0000000007011740                bbh_seg7_dl_07015A20
                0x0000000007011a20                bbh_seg7_dl_070156E0
                0x0000000007011d28                bbh_seg7_dl_07015398
                0x0000000007012030                bbh_seg7_dl_07014FD8
                0x00000000070132f8                bbh_seg7_dl_07013BE8
                0x0000000007013490                bbh_seg7_dl_070139A8
                0x0000000007014658                bbh_seg7_dl_070126E8
                0x0000000007014810                bbh_seg7_dl_07012510
                0x0000000007014a40                bbh_seg7_dl_07012220
                0x00000000070159c8                bbh_seg7_dl_07011120
                0x0000000007017130                bbh_seg7_dl_0700F848
                0x00000000070173f0                bbh_seg7_dl_0700F510
                0x0000000007018f00                bbh_seg7_dl_0700D7E0
                0x00000000070191f0                bbh_seg7_dl_0700D490
                0x0000000007019380                bbh_seg7_dl_0700D2E0
                0x0000000007019538                bbh_seg7_dl_0700D080
                0x000000000701a878                bbh_seg7_dl_0700BBF8
                0x000000000701aa50                bbh_seg7_dl_0700B9E0
                0x000000000701afa8                bbh_seg7_dl_0700B418
                0x000000000701b1d8                bbh_seg7_dl_0700B1C8
                0x000000000701b320                bbh_seg7_dl_0700AFF0
                0x000000000701d1f0                bbh_seg7_dl_07008EA8
                0x000000000701d4e0                bbh_seg7_dl_07008B58
                0x000000000701df60                bbh_seg7_dl_07007FD0
                0x000000000701e348                bbh_seg7_dl_07007B90
                0x000000000701e570                bbh_seg7_dl_07007940
                0x000000000701e830                bbh_seg7_dl_070075A8

.data1
 *(.data1)

.got.plt
 *(.got.plt)
                0x0000000007025b00                . = .
                0x0000000007025b00                . = .
                0x000000000702daf0                _gp = (ALIGN (0x10) + 0x7ff0)

.got
 *(.got)

.sdata
 *(.sdata .sdata.* .gnu.linkonce.s.*)

.lit8
 *(.lit8)

.lit4
 *(.lit4)
                0x0000000007025b00                _edata = .
                [!provide]                        PROVIDE (edata = .)
                0x0000000007025b00                . = .
                0x0000000007025b00                __bss_start = .
                0x0000000007025b00                _fbss = .

.sbss
 *(.dynsbss)
 *(.sbss .sbss.* .gnu.linkonce.sb.*)
 *(.scommon)

.bss            0x0000000007025b00        0x0
 *(.dynbss)
 *(.bss .bss.* .gnu.linkonce.b.*)
 .bss           0x0000000007025b00        0x0 build/us_n64/levels/bbh/leveldata.o
 *(COMMON)
                0x0000000007025b00                . = ALIGN ((. != 0x0)?0x4:0x1)
                0x0000000007025b00                . = ALIGN (0x4)
                0x0000000007025b00                . = SEGMENT_START ("ldata-segment", .)
                0x0000000007025b00                . = ALIGN (0x4)
                0x0000000007025b00                _end = .
                [!provide]                        PROVIDE (end = .)
                0x0000000007025b00                . = DATA_SEGMENT_END (.)

.stab
 *(.stab)

.stabstr
 *(.stabstr)

.stab.excl
 *(.stab.excl)

.stab.exclstr
 *(.stab.exclstr)

.stab.index
 *(.stab.index)

.stab.indexstr
 *(.stab.indexstr)

.comment        0x0000000000000000       0x25
 *(.comment)
 .comment       0x0000000000000000       0x25 build/us_n64/levels/bbh/leveldata.o
                                         0x26 (size before relaxing)

.pdr            0x0000000000000000        0x0
 .pdr           0x0000000000000000        0x0 build/us_n64/levels/bbh/leveldata.o

.debug
 *(.debug)

.line
 *(.line)

.debug_srcinfo
 *(.debug_srcinfo)

.debug_sfnames
 *(.debug_sfnames)

.debug_aranges
 *(.debug_aranges)

.debug_pubnames
 *(.debug_pubnames)

.debug_info
 *(.debug_info .gnu.linkonce.wi.*)

.debug_abbrev
 *(.debug_abbrev)

.debug_line
 *(.debug_line .debug_line.* .debug_line_end)

.debug_frame
 *(.debug_frame)

.debug_str
 *(.debug_str)

.debug_loc
 *(.debug_loc)

.debug_macinfo
 *(.debug_macinfo)

.debug_weaknames
 *(.debug_weaknames)

.debug_funcnames
 *(.debug_funcnames)

.debug_typenames
 *(.debug_typenames)

.debug_varnames
 *(.debug_varnames)

.debug_pubtypes
 *(.debug_pubtypes)

.debug_ranges
 *(.debug_ranges)

.debug_macro
 *(.debug_macro)

.debug_addr
 *(.debug_addr)

.gnu.attributes
                0x0000000000000000       0x10
 *(.gnu.attributes)
 .gnu.attributes
                0x0000000000000000       0x10 build/us_n64/levels/bbh/leveldata.o

.gptab.sdata
 *(.gptab.data)
 *(.gptab.sdata)

.gptab.sbss
 *(.gptab.bss)
 *(.gptab.sbss)

.mdebug.abi32   0x0000000000000000        0x0
 *(.mdebug.abi32)
 .mdebug.abi32  0x0000000000000000        0x0 build/us_n64/levels/bbh/leveldata.o

.mdebug.abiN32
 *(.mdebug.abiN32)

.mdebug.abi64
 *(.mdebug.abi64)

.mdebug.abiO64
 *(.mdebug.abiO64)

.mdebug.eabi32
 *(.mdebug.eabi32)

.mdebug.eabi64
 *(.mdebug.eabi64)

.gcc_compiled_long32
 *(.gcc_compiled_long32)

.gcc_compiled_long64
 *(.gcc_compiled_long64)

/DISCARD/
 *(.note.GNU-stack)
 *(.gnu_debuglink)
 *(.gnu.lto_*)
OUTPUT(build/us_n64/levels/bbh/leveldata.elf elf32-bigmips)
