
Discarded input sections

 .note.GNU-stack
                0x0000000000000000        0x0 build/us_n64/levels/castle_inside/leveldata.o

Memory Configuration

Name             Origin             Length             Attributes
*default*        0x0000000000000000 0xffffffffffffffff

Linker script and memory map

Address of section .text set to 0x7000000
LOAD build/us_n64/bin/inside.elf
LOAD build/us_n64/levels/castle_inside/leveldata.o
                [!provide]                        PROVIDE (__executable_start = SEGMENT_START ("text-segment", 0x400000))
                0x0000000000400000                . = SEGMENT_START ("text-segment", 0x400000)

.interp
 *(.interp)

.MIPS.abiflags  0x0000000000400000       0x18
 *(.MIPS.abiflags)
 .MIPS.abiflags
                0x0000000000400000       0x18 build/us_n64/levels/castle_inside/leveldata.o

.reginfo        0x0000000000400018       0x18
 *(.reginfo)
 .reginfo       0x0000000000400018       0x18 build/us_n64/levels/castle_inside/leveldata.o

.note.gnu.build-id
 *(.note.gnu.build-id)

.dynamic
 *(.dynamic)

.hash
 *(.hash)

.gnu.hash
 *(.gnu.hash)

.dynsym
 *(.dynsym)

.dynstr
 *(.dynstr)

.gnu.version
 *(.gnu.version)

.gnu.version_d
 *(.gnu.version_d)

.gnu.version_r
 *(.gnu.version_r)

.rel.dyn        0x0000000000400030        0x0
 *(.rel.init)
 *(.rel.text .rel.text.* .rel.gnu.linkonce.t.*)
 *(.rel.fini)
 *(.rel.rodata .rel.rodata.* .rel.gnu.linkonce.r.*)
 *(.rel.data.rel.ro .rel.data.rel.ro.* .rel.gnu.linkonce.d.rel.ro.*)
 *(.rel.data .rel.data.* .rel.gnu.linkonce.d.*)
 *(.rel.tdata .rel.tdata.* .rel.gnu.linkonce.td.*)
 *(.rel.tbss .rel.tbss.* .rel.gnu.linkonce.tb.*)
 *(.rel.ctors)
 *(.rel.dtors)
 *(.rel.got)
 *(.rel.dyn)
 .rel.dyn       0x0000000000400030        0x0 build/us_n64/levels/castle_inside/leveldata.o
 *(.rel.sdata .rel.sdata.* .rel.gnu.linkonce.s.*)
 *(.rel.sbss .rel.sbss.* .rel.gnu.linkonce.sb.*)
 *(.rel.sdata2 .rel.sdata2.* .rel.gnu.linkonce.s2.*)
 *(.rel.sbss2 .rel.sbss2.* .rel.gnu.linkonce.sb2.*)
 *(.rel.bss .rel.bss.* .rel.gnu.linkonce.b.*)
                [!provide]                        PROVIDE (__rel_iplt_start = .)
 *(.rel.iplt)
                [!provide]                        PROVIDE (__rel_iplt_end = .)

.rela.dyn       0x0000000000400030        0x0
 *(.rela.init)
 *(.rela.text .rela.text.* .rela.gnu.linkonce.t.*)
 *(.rela.fini)
 *(.rela.rodata .rela.rodata.* .rela.gnu.linkonce.r.*)
 *(.rela.data .rela.data.* .rela.gnu.linkonce.d.*)
 *(.rela.tdata .rela.tdata.* .rela.gnu.linkonce.td.*)
 *(.rela.tbss .rela.tbss.* .rela.gnu.linkonce.tb.*)
 *(.rela.ctors)
 *(.rela.dtors)
 *(.rela.got)
 *(.rela.sdata .rela.sdata.* .rela.gnu.linkonce.s.*)
 *(.rela.sbss .rela.sbss.* .rela.gnu.linkonce.sb.*)
 *(.rela.sdata2 .rela.sdata2.* .rela.gnu.linkonce.s2.*)
 *(.rela.sbss2 .rela.sbss2.* .rela.gnu.linkonce.sb2.*)
 *(.rela.bss .rela.bss.* .rela.gnu.linkonce.b.*)
                [!provide]                        PROVIDE (__rela_iplt_start = .)
 *(.rela.iplt)
                [!provide]                        PROVIDE (__rela_iplt_end = .)

.rel.plt
 *(.rel.plt)

.rela.plt
 *(.rela.plt)

.init
 *(SORT_NONE(.init))

.plt
 *(.plt)

.iplt
 *(.iplt)

.text           0x0000000007000000        0x0
                0x0000000007000000                _ftext = .
 *(.text.unlikely .text.*_unlikely .text.unlikely.*)
 *(.text.exit .text.exit.*)
 *(.text.startup .text.startup.*)
 *(.text.hot .text.hot.*)
 *(.text .stub .text.* .gnu.linkonce.t.*)
 .text          0x0000000007000000        0x0 build/us_n64/levels/castle_inside/leveldata.o
 *(.gnu.warning)
 *(.mips16.fn.*)
 *(.mips16.call.*)

.fini
 *(SORT_NONE(.fini))
                [!provide]                        PROVIDE (__etext = .)
                [!provide]                        PROVIDE (_etext = .)
                [!provide]                        PROVIDE (etext = .)

.rodata
 *(.rodata .rodata.* .gnu.linkonce.r.*)

.rodata1
 *(.rodata1)

.sdata2
 *(.sdata2 .sdata2.* .gnu.linkonce.s2.*)

.sbss2
 *(.sbss2 .sbss2.* .gnu.linkonce.sb2.*)

.eh_frame_hdr
 *(.eh_frame_hdr)
 *(.eh_frame_entry .eh_frame_entry.*)

.eh_frame
 *(.eh_frame)
 *(.eh_frame.*)

.gcc_except_table
 *(.gcc_except_table .gcc_except_table.*)

.gnu_extab
 *(.gnu_extab*)

.exception_ranges
 *(.exception_ranges .exception_ranges*)
                0x0000000007000000                . = DATA_SEGMENT_ALIGN (CONSTANT (MAXPAGESIZE), CONSTANT (COMMONPAGESIZE))

.eh_frame
 *(.eh_frame)
 *(.eh_frame.*)

.gnu_extab
 *(.gnu_extab)

.gcc_except_table
 *(.gcc_except_table .gcc_except_table.*)

.exception_ranges
 *(.exception_ranges .exception_ranges*)

.tdata
 *(.tdata .tdata.* .gnu.linkonce.td.*)

.tbss
 *(.tbss .tbss.* .gnu.linkonce.tb.*)
 *(.tcommon)

.preinit_array  0x0000000007000000        0x0
                [!provide]                        PROVIDE (__preinit_array_start = .)
 *(.preinit_array)
                [!provide]                        PROVIDE (__preinit_array_end = .)

.init_array     0x0000000007000000        0x0
                [!provide]                        PROVIDE (__init_array_start = .)
 *(SORT_BY_INIT_PRIORITY(.init_array.*) SORT_BY_INIT_PRIORITY(.ctors.*))
 *(.init_array EXCLUDE_FILE(*crtend?.o *crtend.o *crtbegin?.o *crtbegin.o) .ctors)
                [!provide]                        PROVIDE (__init_array_end = .)

.fini_array     0x0000000007000000        0x0
                [!provide]                        PROVIDE (__fini_array_start = .)
 *(SORT_BY_INIT_PRIORITY(.fini_array.*) SORT_BY_INIT_PRIORITY(.dtors.*))
 *(.fini_array EXCLUDE_FILE(*crtend?.o *crtend.o *crtbegin?.o *crtbegin.o) .dtors)
                [!provide]                        PROVIDE (__fini_array_end = .)

.ctors
 *crtbegin.o(.ctors)
 *crtbegin?.o(.ctors)
 *(EXCLUDE_FILE(*crtend?.o *crtend.o) .ctors)
 *(SORT_BY_NAME(.ctors.*))
 *(.ctors)

.dtors
 *crtbegin.o(.dtors)
 *crtbegin?.o(.dtors)
 *(EXCLUDE_FILE(*crtend?.o *crtend.o) .dtors)
 *(SORT_BY_NAME(.dtors.*))
 *(.dtors)

.jcr
 *(.jcr)

.data.rel.ro
 *(.data.rel.ro.local* .gnu.linkonce.d.rel.ro.local.*)
 *(.data.rel.ro .data.rel.ro.* .gnu.linkonce.d.rel.ro.*)
                0x0000000007000000                . = DATA_SEGMENT_RELRO_END (., 0x0)

.data           0x0000000007000000    0x75ef0
                0x0000000007000000                _fdata = .
 *(.data .data.* .gnu.linkonce.d.*)
 .data          0x0000000007000000    0x75ef0 build/us_n64/levels/castle_inside/leveldata.o
                0x0000000007000000                inside_castle_movtex_moat_water
                0x0000000007000018                inside_castle_movtex_green_room_water
                0x0000000007000088                inside_castle_seg7_trajectory_mips
                0x0000000007000220                inside_castle_seg7_collision_water_level_pillar
                0x00000000070002ac                inside_castle_seg7_collision_star_door
                0x0000000007000328                inside_castle_seg7_collision_floor_trap
                0x000000000700035c                inside_castle_seg7_area_3_rooms
                0x00000000070008d0                inside_castle_seg7_area_2_rooms
                0x00000000070010b4                inside_castle_seg7_area_1_rooms
                0x0000000007001914                inside_castle_seg7_area_3_macro_objs
                0x0000000007001954                inside_castle_seg7_area_2_macro_objs
                0x0000000007001960                inside_castle_seg7_area_1_macro_objs
                0x00000000070019dc                inside_castle_seg7_collision_ddd_warp_2
                0x0000000007001ad0                inside_castle_seg7_collision_ddd_warp
                0x0000000007001bc4                inside_castle_seg7_area_3_collision
                0x00000000070061b0                inside_castle_seg7_area_2_collision
                0x000000000700c8bc                inside_castle_seg7_area_1_collision
                0x0000000007013158                inside_castle_seg7_dl_07068B10
                0x00000000070133a8                inside_castle_seg7_dl_07068850
                0x0000000007014a68                inside_castle_seg7_dl_07066FA0
                0x0000000007014b68                inside_castle_seg7_dl_07066E90
                0x0000000007014cd0                inside_castle_seg7_dl_07066CE0
                0x00000000070169b0                inside_castle_seg7_dl_07064D58
                0x0000000007016b20                inside_castle_seg7_dl_07064B78
                0x00000000070196b0                inside_castle_seg7_dl_07061C20
                0x0000000007019b50                inside_castle_seg7_dl_070616E8
                0x000000000701c9d8                inside_castle_seg7_dl_0705E450
                0x000000000701cb68                inside_castle_seg7_dl_0705E2A0
                0x000000000701cd20                inside_castle_seg7_dl_0705E088
                0x00000000070215a8                inside_castle_seg7_dl_07059190
                0x0000000007021d30                inside_castle_seg7_dl_07058950
                0x0000000007022638                inside_castle_seg7_dl_07057F00
                0x00000000070231a0                inside_castle_seg7_dl_070572A0
                0x00000000070249e0                inside_castle_seg7_dl_070558D0
                0x0000000007028300                inside_castle_seg7_dl_07051B60
                0x0000000007028430                inside_castle_seg7_dl_070519C8
                0x0000000007028720                inside_castle_seg7_dl_07051678
                0x0000000007028a58                inside_castle_seg7_dl_070512F8
                0x0000000007029290                inside_castle_seg7_dl_07050938
                0x000000000702ce90                inside_castle_seg7_dl_0704C7D8
                0x000000000702e938                inside_castle_seg7_dl_0704AA98
                0x000000000702f0c0                inside_castle_seg7_dl_0704A2E0
                0x000000000702f250                inside_castle_seg7_dl_0704A0E8
                0x0000000007034df8                inside_castle_seg7_dl_07043CD8
                0x0000000007034ef8                inside_castle_seg7_dl_07043B48
                0x0000000007035980                inside_castle_seg7_dl_07043028
                0x0000000007039c00                inside_castle_seg7_dl_0703E6F0
                0x000000000703bff8                inside_castle_seg7_dl_0703BFA8
                0x000000000703c2d8                inside_castle_seg7_dl_0703BCB8
                0x000000000703c528                inside_castle_seg7_dl_0703BA08
                0x000000000703d5e0                inside_castle_seg7_dl_0703A808
                0x000000000703d6e0                inside_castle_seg7_dl_0703A6C8
                0x000000000703f770                inside_castle_seg7_dl_07038350
                0x000000000703f870                dl_castle_aquarium_light
                0x000000000703fc68                inside_castle_seg7_dl_07037DE8
                0x000000000703fe20                inside_castle_seg7_dl_07037BF8
                0x0000000007040020                inside_castle_seg7_dl_07037988
                0x0000000007040ab8                inside_castle_seg7_dl_07036D88
                0x00000000070423d0                inside_castle_seg7_dl_07035288
                0x00000000070424d0                inside_castle_seg7_dl_07035178
                0x0000000007042828                inside_castle_seg7_dl_07034D88
                0x0000000007044220                inside_castle_seg7_dl_07033158
                0x0000000007044368                inside_castle_seg7_dl_07032FC0
                0x0000000007045908                inside_castle_seg7_dl_07031830
                0x0000000007045a08                inside_castle_seg7_dl_07031720
                0x0000000007045b78                inside_castle_seg7_dl_07031588
                0x0000000007045bf8                inside_castle_seg7_dl_07031168
                0x00000000070465b8                inside_castle_seg7_vertex_07030940
                0x00000000070471b8                inside_castle_seg7_dl_0702FD30
                0x00000000070488d0                inside_castle_seg7_dl_0702E408
                0x000000000704bcf0                inside_castle_seg7_dl_0702AB20
                0x000000000704bdf0                inside_castle_seg7_dl_0702AA10
                0x000000000704bf58                dl_castle_lobby_wing_cap_light
                0x000000000704c130                inside_castle_seg7_dl_0702A650
                0x000000000704d090                inside_castle_seg7_dl_07029578
                0x000000000704d588                inside_castle_seg7_dl_07028FD0
                0x0000000007051f60                inside_castle_seg7_dl_bowser_1_painting
                0x0000000007052270                thi_huge_painting
                0x00000000070522e8                sl_painting
                0x0000000007052360                ttc_painting
                0x00000000070523d8                ttm_painting
                0x0000000007052450                thi_tiny_painting
                0x00000000070524c8                wdw_painting
                0x0000000007052540                ddd_painting
                0x00000000070525b8                hmc_painting
                0x0000000007052630                ssl_painting
                0x00000000070526a8                lll_painting
                0x0000000007052720                jrb_painting
                0x0000000007052798                wf_painting
                0x0000000007052810                ccm_painting
                0x0000000007052888                bob_painting
                0x00000000070529b8                inside_castle_seg7_dl_07023520
                0x0000000007052a18                inside_castle_seg7_dl_070234C0
                0x00000000070538f0                inside_castle_seg7_dl_07022610
                0x0000000007053920                inside_castle_seg7_dl_070225D8

.data1
 *(.data1)

.got.plt
 *(.got.plt)
                0x0000000007075ef0                . = .
                0x0000000007075ef0                . = .
                0x000000000707dee0                _gp = (ALIGN (0x10) + 0x7ff0)

.got
 *(.got)

.sdata
 *(.sdata .sdata.* .gnu.linkonce.s.*)

.lit8
 *(.lit8)

.lit4
 *(.lit4)
                0x0000000007075ef0                _edata = .
                [!provide]                        PROVIDE (edata = .)
                0x0000000007075ef0                . = .
                0x0000000007075ef0                __bss_start = .
                0x0000000007075ef0                _fbss = .

.sbss
 *(.dynsbss)
 *(.sbss .sbss.* .gnu.linkonce.sb.*)
 *(.scommon)

.bss            0x0000000007075ef0        0x0
 *(.dynbss)
 *(.bss .bss.* .gnu.linkonce.b.*)
 .bss           0x0000000007075ef0        0x0 build/us_n64/levels/castle_inside/leveldata.o
 *(COMMON)
                0x0000000007075ef0                . = ALIGN ((. != 0x0)?0x4:0x1)
                0x0000000007075ef0                . = ALIGN (0x4)
                0x0000000007075ef0                . = SEGMENT_START ("ldata-segment", .)
                0x0000000007075ef0                . = ALIGN (0x4)
                0x0000000007075ef0                _end = .
                [!provide]                        PROVIDE (end = .)
                0x0000000007075ef0                . = DATA_SEGMENT_END (.)

.stab
 *(.stab)

.stabstr
 *(.stabstr)

.stab.excl
 *(.stab.excl)

.stab.exclstr
 *(.stab.exclstr)

.stab.index
 *(.stab.index)

.stab.indexstr
 *(.stab.indexstr)

.comment        0x0000000000000000       0x25
 *(.comment)
 .comment       0x0000000000000000       0x25 build/us_n64/levels/castle_inside/leveldata.o
                                         0x26 (size before relaxing)

.pdr            0x0000000000000000        0x0
 .pdr           0x0000000000000000        0x0 build/us_n64/levels/castle_inside/leveldata.o

.debug
 *(.debug)

.line
 *(.line)

.debug_srcinfo
 *(.debug_srcinfo)

.debug_sfnames
 *(.debug_sfnames)

.debug_aranges
 *(.debug_aranges)

.debug_pubnames
 *(.debug_pubnames)

.debug_info
 *(.debug_info .gnu.linkonce.wi.*)

.debug_abbrev
 *(.debug_abbrev)

.debug_line
 *(.debug_line .debug_line.* .debug_line_end)

.debug_frame
 *(.debug_frame)

.debug_str
 *(.debug_str)

.debug_loc
 *(.debug_loc)

.debug_macinfo
 *(.debug_macinfo)

.debug_weaknames
 *(.debug_weaknames)

.debug_funcnames
 *(.debug_funcnames)

.debug_typenames
 *(.debug_typenames)

.debug_varnames
 *(.debug_varnames)

.debug_pubtypes
 *(.debug_pubtypes)

.debug_ranges
 *(.debug_ranges)

.debug_macro
 *(.debug_macro)

.debug_addr
 *(.debug_addr)

.gnu.attributes
                0x0000000000000000       0x10
 *(.gnu.attributes)
 .gnu.attributes
                0x0000000000000000       0x10 build/us_n64/levels/castle_inside/leveldata.o

.gptab.sdata
 *(.gptab.data)
 *(.gptab.sdata)

.gptab.sbss
 *(.gptab.bss)
 *(.gptab.sbss)

.mdebug.abi32   0x0000000000000000        0x0
 *(.mdebug.abi32)
 .mdebug.abi32  0x0000000000000000        0x0 build/us_n64/levels/castle_inside/leveldata.o

.mdebug.abiN32
 *(.mdebug.abiN32)

.mdebug.abi64
 *(.mdebug.abi64)

.mdebug.abiO64
 *(.mdebug.abiO64)

.mdebug.eabi32
 *(.mdebug.eabi32)

.mdebug.eabi64
 *(.mdebug.eabi64)

.gcc_compiled_long32
 *(.gcc_compiled_long32)

.gcc_compiled_long64
 *(.gcc_compiled_long64)

/DISCARD/
 *(.note.GNU-stack)
 *(.gnu_debuglink)
 *(.gnu.lto_*)
OUTPUT(build/us_n64/levels/castle_inside/leveldata.elf elf32-bigmips)
